; Function Attrs: mustprogress nounwind uwtable
define internal fastcc void @_ZL16formatWithCommasB5cxx11y(ptr dead_on_unwind noalias writable align 8 %0, i64 noundef %1) unnamed_addr #3 {
  tail call void @_ZNSt7__cxx119to_stringEy(ptr dead_on_unwind writable sret(%"class.std::__cxx11::basic_string") align 8 %0, i64 noundef %1)
  %3 = tail call noundef i64 @_ZNKSt7__cxx1112basic_stringIcSt11char_traitsIcESaIcEE6lengthEv(ptr noundef nonnull align 8 dereferenceable(32) %0) #24
  %4 = trunc i64 %3 to i32
  %.04 = add i32 %4, -3
  %5 = icmp sgt i32 %.04, 0
  br i1 %5, label %.lr.ph.preheader, label %._crit_edge

.lr.ph.preheader:                                 ; preds = %2
  %6 = zext nneg i32 %.04 to i64
  br label %.lr.ph

.lr.ph:                                           ; preds = %.lr.ph.preheader, %.lr.ph
  %indvars.iv = phi i64 [ %6, %.lr.ph.preheader ], [ %indvars.iv.next, %.lr.ph ]
  %7 = tail call noundef nonnull align 8 dereferenceable(32) ptr @_ZNSt7__cxx1112basic_stringIcSt11char_traitsIcESaIcEE6insertEmPKc(ptr noundef nonnull align 8 dereferenceable(32) %0, i64 noundef %indvars.iv, ptr noundef nonnull @.str.57) #24
  %indvars.iv.next = add nsw i64 %indvars.iv, -3
  %8 = icmp ugt i64 %indvars.iv, 3
  br i1 %8, label %.lr.ph, label %._crit_edge, !llvm.loop !60

._crit_edge:                                      ; preds = %.lr.ph, %2
  ret void
}